target datalayout = "e-m:e-p270:32:32-p271:32:32-p272:64:64-i64:64-i128:128-f80:128-n8:16:32:64-S128"
target triple = "x86_64-pc-linux-gnu"

%class.symbol = type { ptr }
%class.ast = type { i32, i32, i32, i32 }
%class.expr = type { %class.ast }
%class.quantifier = type { %class.expr, i32, i32, ptr, ptr, i32, i32, i8, i8, %class.symbol, %class.symbol, i32, i32, [0 x i8] }

; Function Attrs: mustprogress nounwind uwtable
define linkonce_odr hidden noundef ptr @_ZNK10quantifier12get_patternsEv(ptr noundef nonnull align 8 dereferenceable(80) %0) #4 comdat align 2 {
  %2 = alloca ptr, align 8
  store ptr %0, ptr %2, align 8, !tbaa !137
  %3 = load ptr, ptr %2, align 8
  %4 = call noundef ptr @_ZNK10quantifier14get_decl_namesEv(ptr noundef nonnull align 8 dereferenceable(80) %3)
  %5 = getelementptr inbounds nuw %class.quantifier, ptr %3, i32 0, i32 2
  %6 = load i32, ptr %5, align 4, !tbaa !143
  %7 = zext i32 %6 to i64
  %8 = getelementptr inbounds nuw %class.symbol, ptr %4, i64 %7
  ret ptr %8
}

; Function Attrs: mustprogress nounwind uwtable
define linkonce_odr hidden noundef ptr @_ZNK10quantifier11get_patternEj(ptr noundef nonnull align 8 dereferenceable(80) %0, i32 noundef %1) #4 comdat align 2 {
  %3 = alloca ptr, align 8
  %4 = alloca i32, align 4
  store ptr %0, ptr %3, align 8, !tbaa !137
  store i32 %1, ptr %4, align 4, !tbaa !25
  %5 = load ptr, ptr %3, align 8
  %6 = call noundef ptr @_ZNK10quantifier12get_patternsEv(ptr noundef nonnull align 8 dereferenceable(80) %5)
  %7 = load i32, ptr %4, align 4, !tbaa !25
  %8 = zext i32 %7 to i64
  %9 = getelementptr inbounds nuw ptr, ptr %6, i64 %8
  %10 = load ptr, ptr %9, align 8, !tbaa !132
  ret ptr %10
}

; Function Attrs: mustprogress nounwind uwtable
define linkonce_odr hidden noundef i32 @_ZNK10quantifier16get_num_patternsEv(ptr noundef nonnull align 8 dereferenceable(80) %0) #4 comdat align 2 {
  %2 = alloca ptr, align 8
  store ptr %0, ptr %2, align 8, !tbaa !137
  %3 = load ptr, ptr %2, align 8
  %4 = getelementptr inbounds nuw %class.quantifier, ptr %3, i32 0, i32 11
  %5 = load i32, ptr %4, align 8, !tbaa !150
  ret i32 %5
}

; Function Attrs: mustprogress nounwind uwtable
define linkonce_odr hidden noundef ptr @_ZNK10quantifier15get_no_patternsEv(ptr noundef nonnull align 8 dereferenceable(80) %0) #4 comdat align 2 {
  %2 = alloca ptr, align 8
  store ptr %0, ptr %2, align 8, !tbaa !137
  %3 = load ptr, ptr %2, align 8
  %4 = call noundef ptr @_ZNK10quantifier14get_decl_namesEv(ptr noundef nonnull align 8 dereferenceable(80) %3)
  %5 = getelementptr inbounds nuw %class.quantifier, ptr %3, i32 0, i32 2
  %6 = load i32, ptr %5, align 4, !tbaa !143
  %7 = zext i32 %6 to i64
  %8 = getelementptr inbounds nuw %class.symbol, ptr %4, i64 %7
  ret ptr %8
}

; Function Attrs: mustprogress nounwind uwtable
define linkonce_odr hidden noundef i32 @_ZNK10quantifier19get_num_no_patternsEv(ptr noundef nonnull align 8 dereferenceable(80) %0) #4 comdat align 2 {
  %2 = alloca ptr, align 8
  store ptr %0, ptr %2, align 8, !tbaa !137
  %3 = load ptr, ptr %2, align 8
  %4 = getelementptr inbounds nuw %class.quantifier, ptr %3, i32 0, i32 12
  %5 = load i32, ptr %4, align 4, !tbaa !151
  ret i32 %5
}

; Function Attrs: mustprogress nounwind uwtable
define linkonce_odr hidden noundef nonnull align 8 dereferenceable(8) ptr @_ZNK10quantifier8get_skidEv(ptr noundef nonnull align 8 dereferenceable(80) %0) #4 comdat align 2 {
  %2 = alloca ptr, align 8
  store ptr %0, ptr %2, align 8, !tbaa !137
  %3 = load ptr, ptr %2, align 8
  %4 = getelementptr inbounds nuw %class.quantifier, ptr %3, i32 0, i32 10
  ret ptr %4
}

; Function Attrs: mustprogress nounwind uwtable
define linkonce_odr hidden noundef nonnull align 8 dereferenceable(8) ptr @_ZNK10quantifier7get_qidEv(ptr noundef nonnull align 8 dereferenceable(80) %0) #4 comdat align 2 {
  %2 = alloca ptr, align 8
  store ptr %0, ptr %2, align 8, !tbaa !137
  %3 = load ptr, ptr %2, align 8
  %4 = getelementptr inbounds nuw %class.quantifier, ptr %3, i32 0, i32 9
  ret ptr %4
}

; Function Attrs: mustprogress nounwind uwtable
define linkonce_odr hidden noundef i32 @_ZNK10quantifier10get_weightEv(ptr noundef nonnull align 8 dereferenceable(80) %0) #4 comdat align 2 {
  %2 = alloca ptr, align 8
  store ptr %0, ptr %2, align 8, !tbaa !137
  %3 = load ptr, ptr %2, align 8
  %4 = getelementptr inbounds nuw %class.quantifier, ptr %3, i32 0, i32 6
  %5 = load i32, ptr %4, align 4, !tbaa !147
  ret i32 %5
}

; Function Attrs: mustprogress nounwind uwtable
define linkonce_odr hidden noundef ptr @_ZNK10quantifier14get_decl_namesEv(ptr noundef nonnull align 8 dereferenceable(80) %0) #4 comdat align 2 {
  %2 = alloca ptr, align 8
  store ptr %0, ptr %2, align 8, !tbaa !137
  %3 = load ptr, ptr %2, align 8
  %4 = call noundef ptr @_ZNK10quantifier14get_decl_sortsEv(ptr noundef nonnull align 8 dereferenceable(80) %3)
  %5 = getelementptr inbounds nuw %class.quantifier, ptr %3, i32 0, i32 2
  %6 = load i32, ptr %5, align 4, !tbaa !143
  %7 = zext i32 %6 to i64
  %8 = getelementptr inbounds nuw ptr, ptr %4, i64 %7
  ret ptr %8
}

; Function Attrs: mustprogress nounwind uwtable
define linkonce_odr hidden noundef ptr @_ZNK10quantifier14get_decl_sortsEv(ptr noundef nonnull align 8 dereferenceable(80) %0) #4 comdat align 2 {
  %2 = alloca ptr, align 8
  store ptr %0, ptr %2, align 8, !tbaa !137
  %3 = load ptr, ptr %2, align 8
  %4 = getelementptr inbounds nuw %class.quantifier, ptr %3, i32 0, i32 13
  %5 = getelementptr inbounds [0 x i8], ptr %4, i64 0, i64 0
  ret ptr %5
}

; Function Attrs: mustprogress nounwind uwtable
define linkonce_odr hidden noundef i32 @_ZNK10quantifier13get_num_declsEv(ptr noundef nonnull align 8 dereferenceable(80) %0) #4 comdat align 2 {
  %2 = alloca ptr, align 8
  store ptr %0, ptr %2, align 8, !tbaa !137
  %3 = load ptr, ptr %2, align 8
  %4 = getelementptr inbounds nuw %class.quantifier, ptr %3, i32 0, i32 2
  %5 = load i32, ptr %4, align 4, !tbaa !143
  ret i32 %5
}

; Function Attrs: mustprogress nounwind uwtable
define internal noundef zeroext i1 @_ZL13same_patternsP10quantifierjPKP4expr(ptr noundef %0, i32 noundef %1, ptr noundef %2) #4 {
  %4 = alloca i1, align 1
  %5 = alloca ptr, align 8
  %6 = alloca i32, align 4
  %7 = alloca ptr, align 8
  %8 = alloca i32, align 4
  %9 = alloca i32, align 4
  store ptr %0, ptr %5, align 8, !tbaa !137
  store i32 %1, ptr %6, align 4, !tbaa !25
  store ptr %2, ptr %7, align 8, !tbaa !125
  %10 = load i32, ptr %6, align 4, !tbaa !25
  %11 = load ptr, ptr %5, align 8, !tbaa !137
  %12 = call noundef i32 @_ZNK10quantifier16get_num_patternsEv(ptr noundef nonnull align 8 dereferenceable(80) %11)
  %13 = icmp ne i32 %10, %12
  br i1 %13, label %14, label %15

14:                                               ; preds = %3
  store i1 false, ptr %4, align 1
  br label %39

15:                                               ; preds = %3
  call void @llvm.lifetime.start.p0(i64 4, ptr %8) #3
  store i32 0, ptr %8, align 4, !tbaa !25
  br label %16

16:                                               ; preds = %33, %15
  %17 = load i32, ptr %8, align 4, !tbaa !25
  %18 = load i32, ptr %6, align 4, !tbaa !25
  %19 = icmp ult i32 %17, %18
  br i1 %19, label %21, label %20

20:                                               ; preds = %16
  store i32 2, ptr %9, align 4
  br label %36

21:                                               ; preds = %16
  %22 = load ptr, ptr %5, align 8, !tbaa !137
  %23 = load i32, ptr %8, align 4, !tbaa !25
  %24 = call noundef ptr @_ZNK10quantifier11get_patternEj(ptr noundef nonnull align 8 dereferenceable(80) %22, i32 noundef %23)
  %25 = load ptr, ptr %7, align 8, !tbaa !125
  %26 = load i32, ptr %8, align 4, !tbaa !25
  %27 = zext i32 %26 to i64
  %28 = getelementptr inbounds nuw ptr, ptr %25, i64 %27
  %29 = load ptr, ptr %28, align 8, !tbaa !132
  %30 = icmp ne ptr %24, %29
  br i1 %30, label %31, label %32

31:                                               ; preds = %21
  store i1 false, ptr %4, align 1
  store i32 1, ptr %9, align 4
  br label %36

32:                                               ; preds = %21
  br label %33

33:                                               ; preds = %32
  %34 = load i32, ptr %8, align 4, !tbaa !25
  %35 = add i32 %34, 1
  store i32 %35, ptr %8, align 4, !tbaa !25
  br label %16, !llvm.loop !534

36:                                               ; preds = %31, %20
  call void @llvm.lifetime.end.p0(i64 4, ptr %8) #3
  %37 = load i32, ptr %9, align 4
  switch i32 %37, label %41 [
    i32 2, label %38
    i32 1, label %39
  ]

38:                                               ; preds = %36
  store i1 true, ptr %4, align 1
  br label %39

39:                                               ; preds = %38, %36, %14
  %40 = load i1, ptr %4, align 1
  ret i1 %40

41:                                               ; preds = %36
  unreachable
}

; Function Attrs: mustprogress nounwind uwtable
define linkonce_odr hidden noundef i32 @_ZNK10quantifier8get_kindEv(ptr noundef nonnull align 8 dereferenceable(80) %0) #4 comdat align 2 {
  %2 = alloca ptr, align 8
  store ptr %0, ptr %2, align 8, !tbaa !137
  %3 = load ptr, ptr %2, align 8
  %4 = getelementptr inbounds nuw %class.quantifier, ptr %3, i32 0, i32 1
  %5 = load i32, ptr %4, align 8, !tbaa !141
  ret i32 %5
}

; Function Attrs: mustprogress nounwind uwtable
define linkonce_odr hidden noundef ptr @_ZNK10quantifier8get_exprEv(ptr noundef nonnull align 8 dereferenceable(80) %0) #4 comdat align 2 {
  %2 = alloca ptr, align 8
  store ptr %0, ptr %2, align 8, !tbaa !137
  %3 = load ptr, ptr %2, align 8
  %4 = getelementptr inbounds nuw %class.quantifier, ptr %3, i32 0, i32 3
  %5 = load ptr, ptr %4, align 8, !tbaa !144
  ret ptr %5
}

; Function Attrs: mustprogress uwtable
define hidden noundef ptr @_ZN11ast_manager17update_quantifierEP10quantifier15quantifier_kindjPKP4exprS4_(ptr noundef nonnull align 8 dereferenceable(976) %0, ptr noundef %1, i32 noundef %2, i32 noundef %3, ptr noundef %4, ptr noundef %5) #6 align 2 {
  %7 = alloca ptr, align 8
  %8 = alloca ptr, align 8
  %9 = alloca ptr, align 8
  %10 = alloca i32, align 4
  %11 = alloca i32, align 4
  %12 = alloca ptr, align 8
  %13 = alloca ptr, align 8
  store ptr %0, ptr %8, align 8, !tbaa !21
  store ptr %1, ptr %9, align 8, !tbaa !137
  store i32 %2, ptr %10, align 4, !tbaa !139
  store i32 %3, ptr %11, align 4, !tbaa !25
  store ptr %4, ptr %12, align 8, !tbaa !125
  store ptr %5, ptr %13, align 8, !tbaa !132
  %14 = load ptr, ptr %8, align 8
  %15 = load ptr, ptr %9, align 8, !tbaa !137
  %16 = call noundef ptr @_ZNK10quantifier8get_exprEv(ptr noundef nonnull align 8 dereferenceable(80) %15)
  %17 = load ptr, ptr %13, align 8, !tbaa !132
  %18 = icmp eq ptr %16, %17
  br i1 %18, label %19, label %31

19:                                               ; preds = %6
  %20 = load ptr, ptr %9, align 8, !tbaa !137
  %21 = call noundef i32 @_ZNK10quantifier8get_kindEv(ptr noundef nonnull align 8 dereferenceable(80) %20)
  %22 = load i32, ptr %10, align 4, !tbaa !139
  %23 = icmp eq i32 %21, %22
  br i1 %23, label %24, label %31

24:                                               ; preds = %19
  %25 = load ptr, ptr %9, align 8, !tbaa !137
  %26 = load i32, ptr %11, align 4, !tbaa !25
  %27 = load ptr, ptr %12, align 8, !tbaa !125
  %28 = call noundef zeroext i1 @_ZL13same_patternsP10quantifierjPKP4expr(ptr noundef %25, i32 noundef %26, ptr noundef %27)
  br i1 %28, label %29, label %31

29:                                               ; preds = %24
  %30 = load ptr, ptr %9, align 8, !tbaa !137
  store ptr %30, ptr %7, align 8
  br label %65

31:                                               ; preds = %24, %19, %6
  %32 = load i32, ptr %10, align 4, !tbaa !139
  %33 = load ptr, ptr %9, align 8, !tbaa !137
  %34 = call noundef i32 @_ZNK10quantifier13get_num_declsEv(ptr noundef nonnull align 8 dereferenceable(80) %33)
  %35 = load ptr, ptr %9, align 8, !tbaa !137
  %36 = call noundef ptr @_ZNK10quantifier14get_decl_sortsEv(ptr noundef nonnull align 8 dereferenceable(80) %35)
  %37 = load ptr, ptr %9, align 8, !tbaa !137
  %38 = call noundef ptr @_ZNK10quantifier14get_decl_namesEv(ptr noundef nonnull align 8 dereferenceable(80) %37)
  %39 = load ptr, ptr %13, align 8, !tbaa !132
  %40 = load ptr, ptr %9, align 8, !tbaa !137
  %41 = call noundef i32 @_ZNK10quantifier10get_weightEv(ptr noundef nonnull align 8 dereferenceable(80) %40)
  %42 = load ptr, ptr %9, align 8, !tbaa !137
  %43 = call noundef nonnull align 8 dereferenceable(8) ptr @_ZNK10quantifier7get_qidEv(ptr noundef nonnull align 8 dereferenceable(80) %42)
  %44 = load ptr, ptr %9, align 8, !tbaa !137
  %45 = call noundef nonnull align 8 dereferenceable(8) ptr @_ZNK10quantifier8get_skidEv(ptr noundef nonnull align 8 dereferenceable(80) %44)
  %46 = load i32, ptr %11, align 4, !tbaa !25
  %47 = load ptr, ptr %12, align 8, !tbaa !125
  %48 = load i32, ptr %11, align 4, !tbaa !25
  %49 = icmp eq i32 %48, 0
  br i1 %49, label %50, label %53

50:                                               ; preds = %31
  %51 = load ptr, ptr %9, align 8, !tbaa !137
  %52 = call noundef i32 @_ZNK10quantifier19get_num_no_patternsEv(ptr noundef nonnull align 8 dereferenceable(80) %51)
  br label %54

53:                                               ; preds = %31
  br label %54

54:                                               ; preds = %53, %50
  %55 = phi i32 [ %52, %50 ], [ 0, %53 ]
  %56 = load i32, ptr %11, align 4, !tbaa !25
  %57 = icmp eq i32 %56, 0
  br i1 %57, label %58, label %61

58:                                               ; preds = %54
  %59 = load ptr, ptr %9, align 8, !tbaa !137
  %60 = call noundef ptr @_ZNK10quantifier15get_no_patternsEv(ptr noundef nonnull align 8 dereferenceable(80) %59)
  br label %62

61:                                               ; preds = %54
  br label %62

62:                                               ; preds = %61, %58
  %63 = phi ptr [ %60, %58 ], [ null, %61 ]
  %64 = call noundef ptr @_ZN11ast_manager13mk_quantifierE15quantifier_kindjPKP4sortPK6symbolP4expriRS6_SA_jPKS9_jSC_(ptr noundef nonnull align 8 dereferenceable(976) %14, i32 noundef %32, i32 noundef %34, ptr noundef %36, ptr noundef %38, ptr noundef %39, i32 noundef %41, ptr noundef nonnull align 8 dereferenceable(8) %43, ptr noundef nonnull align 8 dereferenceable(8) %45, i32 noundef %46, ptr noundef %47, i32 noundef %55, ptr noundef %63)
  store ptr %64, ptr %7, align 8
  br label %65

65:                                               ; preds = %62, %29
  %66 = load ptr, ptr %7, align 8
  ret ptr %66
}