; Function Attrs: mustprogress uwtable
define hidden noundef ptr @_ZN11ast_manager17update_quantifierEP10quantifier15quantifier_kindjPKP4exprS4_(ptr noundef nonnull align 8 dereferenceable(976) %0, ptr noundef %1, i32 noundef %2, i32 noundef %3, ptr noundef readonly captures(none) %4, ptr noundef %5) local_unnamed_addr #7 align 2 {
  %7 = getelementptr inbounds nuw i8, ptr %1, i64 24
  %8 = load ptr, ptr %7, align 8, !tbaa !131
  %9 = icmp eq ptr %8, %5
  br i1 %9, label %10, label %_ZL13same_patternsP10quantifierjPKP4expr.exit

10:                                               ; preds = %6
  %11 = getelementptr inbounds nuw i8, ptr %1, i64 16
  %12 = load i32, ptr %11, align 8, !tbaa !127
  %13 = icmp eq i32 %12, %2
  br i1 %13, label %14, label %_ZL13same_patternsP10quantifierjPKP4expr.exit

14:                                               ; preds = %10
  %15 = getelementptr inbounds nuw i8, ptr %1, i64 72
  %16 = load i32, ptr %15, align 8, !tbaa !137
  %.not.i = icmp eq i32 %3, %16
  br i1 %.not.i, label %.preheader.i, label %_ZL13same_patternsP10quantifierjPKP4expr.exit

.preheader.i:                                     ; preds = %14
  %17 = icmp eq i32 %3, 0
  br i1 %17, label %_ZL13same_patternsP10quantifierjPKP4expr.exit.thread, label %.lr.ph.i

.lr.ph.i:                                         ; preds = %.preheader.i
  %18 = getelementptr inbounds nuw i8, ptr %1, i64 20
  %19 = getelementptr inbounds nuw i8, ptr %1, i64 80
  %20 = load i32, ptr %18, align 4, !tbaa !130
  %21 = zext i32 %20 to i64
  %22 = getelementptr inbounds nuw ptr, ptr %19, i64 %21
  %23 = getelementptr inbounds nuw %class.symbol, ptr %22, i64 %21
  %wide.trip.count.i = zext i32 %3 to i64
  br label %25

24:                                               ; preds = %25
  %indvars.iv.next.i = add nuw nsw i64 %indvars.iv.i, 1
  %exitcond.not.i = icmp eq i64 %indvars.iv.next.i, %wide.trip.count.i
  br i1 %exitcond.not.i, label %_ZL13same_patternsP10quantifierjPKP4expr.exit.thread, label %25, !llvm.loop !497

25:                                               ; preds = %24, %.lr.ph.i
  %indvars.iv.i = phi i64 [ 0, %.lr.ph.i ], [ %indvars.iv.next.i, %24 ]
  %26 = getelementptr inbounds nuw ptr, ptr %23, i64 %indvars.iv.i
  %27 = load ptr, ptr %26, align 8, !tbaa !124
  %28 = getelementptr inbounds nuw ptr, ptr %4, i64 %indvars.iv.i
  %29 = load ptr, ptr %28, align 8, !tbaa !124
  %.not13.i = icmp eq ptr %27, %29
  br i1 %.not13.i, label %24, label %_ZL13same_patternsP10quantifierjPKP4expr.exit

_ZL13same_patternsP10quantifierjPKP4expr.exit:    ; preds = %25, %14, %10, %6
  %30 = getelementptr inbounds nuw i8, ptr %1, i64 20
  %31 = load i32, ptr %30, align 4, !tbaa !130
  %32 = getelementptr inbounds nuw i8, ptr %1, i64 80
  %33 = zext i32 %31 to i64
  %34 = getelementptr inbounds nuw ptr, ptr %32, i64 %33
  %35 = getelementptr inbounds nuw i8, ptr %1, i64 44
  %36 = load i32, ptr %35, align 4, !tbaa !134
  %37 = getelementptr inbounds nuw i8, ptr %1, i64 56
  %38 = getelementptr inbounds nuw i8, ptr %1, i64 64
  %39 = icmp eq i32 %3, 0
  br i1 %39, label %.split, label %.split23

.split23:                                         ; preds = %_ZL13same_patternsP10quantifierjPKP4expr.exit
  %40 = tail call noundef ptr @_ZN11ast_manager13mk_quantifierE15quantifier_kindjPKP4sortPK6symbolP4expriRS6_SA_jPKS9_jSC_(ptr noundef nonnull align 8 dereferenceable(976) %0, i32 noundef %2, i32 noundef %31, ptr noundef nonnull %32, ptr noundef nonnull %34, ptr noundef %5, i32 noundef %36, ptr noundef nonnull align 8 dereferenceable(8) %37, ptr noundef nonnull align 8 dereferenceable(8) %38, i32 noundef %3, ptr noundef %4, i32 noundef 0, ptr noundef null)
  br label %_ZL13same_patternsP10quantifierjPKP4expr.exit.thread

.split:                                           ; preds = %_ZL13same_patternsP10quantifierjPKP4expr.exit
  %41 = getelementptr inbounds nuw i8, ptr %1, i64 76
  %42 = load i32, ptr %41, align 4, !tbaa !138
  %43 = getelementptr inbounds nuw %class.symbol, ptr %34, i64 %33
  %44 = tail call noundef ptr @_ZN11ast_manager13mk_quantifierE15quantifier_kindjPKP4sortPK6symbolP4expriRS6_SA_jPKS9_jSC_(ptr noundef nonnull align 8 dereferenceable(976) %0, i32 noundef %2, i32 noundef %31, ptr noundef nonnull %32, ptr noundef nonnull %34, ptr noundef %5, i32 noundef %36, ptr noundef nonnull align 8 dereferenceable(8) %37, ptr noundef nonnull align 8 dereferenceable(8) %38, i32 noundef 0, ptr noundef %4, i32 noundef %42, ptr noundef nonnull %43)
  br label %_ZL13same_patternsP10quantifierjPKP4expr.exit.thread

_ZL13same_patternsP10quantifierjPKP4expr.exit.thread: ; preds = %24, %.preheader.i, %.split, %.split23
  %.0 = phi ptr [ %44, %.split ], [ %40, %.split23 ], [ %1, %.preheader.i ], [ %1, %24 ]
  ret ptr %.0
}